target datalayout = "e-m:e-p270:32:32-p271:32:32-p272:64:64-i64:64-i128:128-f80:128-n8:16:32:64-S128"
target triple = "x86_64-pc-linux-gnu"

%"class.std::unique_ptr" = type { %"struct.std::__uniq_ptr_data" }
%"struct.std::__uniq_ptr_data" = type { %"class.std::__uniq_ptr_impl" }
%"class.std::__uniq_ptr_impl" = type { %"class.std::tuple" }
%"class.std::tuple" = type { %"struct.std::_Tuple_impl" }
%"struct.std::_Tuple_impl" = type { %"struct.std::_Head_base.1" }
%"struct.std::_Head_base.1" = type { ptr }
%"class.google::protobuf::io::CopyingOutputStreamAdaptor" = type { %"class.google::protobuf::io::ZeroCopyOutputStream", ptr, i8, i8, i64, %"class.std::unique_ptr", i32, i32 }
%"class.google::protobuf::io::ZeroCopyOutputStream" = type { ptr }
%"class.google::protobuf::io::CopyingOutputStream" = type { ptr }
%"class.google::protobuf::io::OstreamOutputStream" = type { %"class.google::protobuf::io::ZeroCopyOutputStream", %"class.google::protobuf::io::OstreamOutputStream::CopyingOstreamOutputStream", %"class.google::protobuf::io::CopyingOutputStreamAdaptor" }
%"class.google::protobuf::io::OstreamOutputStream::CopyingOstreamOutputStream" = type { %"class.google::protobuf::io::CopyingOutputStream", ptr }

; Function Attrs: mustprogress uwtable
define hidden noundef zeroext i1 @_ZNK6google8protobuf11MessageLite25SerializePartialToOstreamEPSo(ptr noundef nonnull align 8 dereferenceable(16) %0, ptr noundef %1) #4 align 2 personality ptr @__gxx_personality_v0 {
  %3 = alloca ptr, align 8
  %4 = alloca ptr, align 8
  %5 = alloca %"class.google::protobuf::io::OstreamOutputStream", align 8
  %6 = alloca ptr, align 8
  %7 = alloca i32, align 4
  store ptr %0, ptr %3, align 8, !tbaa !3
  store ptr %1, ptr %4, align 8, !tbaa !124
  %8 = load ptr, ptr %3, align 8
  call void @llvm.lifetime.start.p0(i64 72, ptr %5) #3
  %9 = load ptr, ptr %4, align 8, !tbaa !124
  call void @_ZN6google8protobuf2io19OstreamOutputStreamC1EPSoi(ptr noundef nonnull align 8 dereferenceable(72) %5, ptr noundef %9, i32 noundef -1)
  %10 = invoke noundef zeroext i1 @_ZNK6google8protobuf11MessageLite32SerializePartialToZeroCopyStreamEPNS0_2io20ZeroCopyOutputStreamE(ptr noundef nonnull align 8 dereferenceable(16) %8, ptr noundef %5)
          to label %11 unwind label %12

11:                                               ; preds = %2
  call void @_ZN6google8protobuf2io19OstreamOutputStreamD1Ev(ptr noundef nonnull align 8 dereferenceable(72) %5) #3
  call void @llvm.lifetime.end.p0(i64 72, ptr %5) #3
  ret i1 %10

12:                                               ; preds = %2
  %13 = landingpad { ptr, i32 }
          cleanup
  %14 = extractvalue { ptr, i32 } %13, 0
  store ptr %14, ptr %6, align 8
  %15 = extractvalue { ptr, i32 } %13, 1
  store i32 %15, ptr %7, align 4
  call void @_ZN6google8protobuf2io19OstreamOutputStreamD1Ev(ptr noundef nonnull align 8 dereferenceable(72) %5) #3
  call void @llvm.lifetime.end.p0(i64 72, ptr %5) #3
  br label %16

16:                                               ; preds = %12
  %17 = load ptr, ptr %6, align 8
  %18 = load i32, ptr %7, align 4
  %19 = insertvalue { ptr, i32 } poison, ptr %17, 0
  %20 = insertvalue { ptr, i32 } %19, i32 %18, 1
  resume { ptr, i32 } %20
}